; Function Attrs: mustprogress nounwind uwtable
define dso_local { ptr, ptr } @_ZNK4llvm2gi7PatFrag9in_paramsEv(ptr noundef nonnull align 8 dereferenceable(288) %0) local_unnamed_addr #0 align 2 {
  %2 = getelementptr inbounds nuw i8, ptr %0, i64 16
  %3 = load ptr, ptr %2, align 8
  %4 = getelementptr inbounds nuw i8, ptr %0, i64 8
  %5 = load i32, ptr %4, align 8
  %6 = zext i32 %5 to i64
  %7 = getelementptr inbounds %"struct.llvm::gi::PatFrag::Param", ptr %3, i64 %6
  %8 = tail call noundef i64 @_ZNK4llvm15SmallVectorBaseIjE4sizeEv(ptr noundef nonnull align 8 dereferenceable(16) %2) #25
  %9 = getelementptr inbounds %"struct.llvm::gi::PatFrag::Param", ptr %3, i64 %8
  %.fca.0.insert = insertvalue { ptr, ptr } poison, ptr %7, 0
  %.fca.1.insert = insertvalue { ptr, ptr } %.fca.0.insert, ptr %9, 1
  ret { ptr, ptr } %.fca.1.insert
}